target datalayout = "e-m:e-p270:32:32-p271:32:32-p272:64:64-i64:64-i128:128-f80:128-n8:16:32:64-S128"
target triple = "x86_64-unknown-linux-gnu"

; Function Attrs: nounwind uwtable
define hidden i32 @X509_NAME_print_ex_fp(ptr noundef %fp, ptr noundef %nm, i32 noundef %indent, i64 noundef %flags) #0 {
entry:
  %retval = alloca i32, align 4
  %fp.addr = alloca ptr, align 8
  %nm.addr = alloca ptr, align 8
  %indent.addr = alloca i32, align 4
  %flags.addr = alloca i64, align 8
  %btmp = alloca ptr, align 8
  %ret = alloca i32, align 4
  store ptr %fp, ptr %fp.addr, align 8
  store ptr %nm, ptr %nm.addr, align 8
  store i32 %indent, ptr %indent.addr, align 4
  store i64 %flags, ptr %flags.addr, align 8
  %0 = load i64, ptr %flags.addr, align 8
  %cmp = icmp eq i64 %0, 0
  br i1 %cmp, label %if.then, label %if.end4

if.then:                                          ; preds = %entry
  %1 = load ptr, ptr %fp.addr, align 8
  %call = call ptr @BIO_new_fp(ptr noundef %1, i32 noundef 0)
  store ptr %call, ptr %btmp, align 8
  %2 = load ptr, ptr %btmp, align 8
  %tobool = icmp ne ptr %2, null
  br i1 %tobool, label %if.end, label %if.then1

if.then1:                                         ; preds = %if.then
  store i32 -1, ptr %retval, align 4
  br label %return

if.end:                                           ; preds = %if.then
  %3 = load ptr, ptr %btmp, align 8
  %4 = load ptr, ptr %nm.addr, align 8
  %5 = load i32, ptr %indent.addr, align 4
  %call2 = call i32 @X509_NAME_print(ptr noundef %3, ptr noundef %4, i32 noundef %5)
  store i32 %call2, ptr %ret, align 4
  %6 = load ptr, ptr %btmp, align 8
  %call3 = call i32 @BIO_free(ptr noundef %6)
  %7 = load i32, ptr %ret, align 4
  store i32 %7, ptr %retval, align 4
  br label %return

if.end4:                                          ; preds = %entry
  %8 = load ptr, ptr %fp.addr, align 8
  %9 = load ptr, ptr %nm.addr, align 8
  %10 = load i32, ptr %indent.addr, align 4
  %11 = load i64, ptr %flags.addr, align 8
  %call5 = call i32 @do_name_ex(ptr noundef @send_fp_chars, ptr noundef %8, ptr noundef %9, i32 noundef %10, i64 noundef %11)
  store i32 %call5, ptr %retval, align 4
  br label %return

return:                                           ; preds = %if.end4, %if.end, %if.then1
  %12 = load i32, ptr %retval, align 4
  ret i32 %12
}