; Function Attrs: nounwind uwtable
define hidden i32 @X509_NAME_print_ex_fp(ptr noundef %fp, ptr noundef %nm, i32 noundef %indent, i64 noundef %flags) local_unnamed_addr #0 {
entry:
  %cmp = icmp eq i64 %flags, 0
  br i1 %cmp, label %if.then, label %if.end4

if.then:                                          ; preds = %entry
  %call = tail call ptr @BIO_new_fp(ptr noundef %fp, i32 noundef 0) #10
  %tobool.not = icmp eq ptr %call, null
  br i1 %tobool.not, label %return, label %if.end

if.end:                                           ; preds = %if.then
  %call2 = tail call i32 @X509_NAME_print(ptr noundef nonnull %call, ptr noundef %nm, i32 noundef %indent) #10
  %call3 = tail call i32 @BIO_free(ptr noundef nonnull %call) #10
  br label %return

if.end4:                                          ; preds = %entry
  %call5 = tail call fastcc i32 @do_name_ex(ptr noundef nonnull @send_fp_chars, ptr noundef %fp, ptr noundef %nm, i32 noundef %indent, i64 noundef %flags)
  br label %return

return:                                           ; preds = %if.then, %if.end4, %if.end
  %retval.0 = phi i32 [ %call2, %if.end ], [ %call5, %if.end4 ], [ -1, %if.then ]
  ret i32 %retval.0
}